target datalayout = "e-m:e-p270:32:32-p271:32:32-p272:64:64-i64:64-i128:128-f80:128-n8:16:32:64-S128"
target triple = "x86_64-pc-linux-gnu"

%"class.std::vector.0" = type { %"struct.std::_Vector_base.1" }
%"struct.std::_Vector_base.1" = type { %"struct.std::_Vector_base<const Fact *, std::allocator<const Fact *>>::_Vector_impl" }
%"struct.std::_Vector_base<const Fact *, std::allocator<const Fact *>>::_Vector_impl" = type { %"struct.std::_Vector_base<const Fact *, std::allocator<const Fact *>>::_Vector_impl_data" }
%"struct.std::_Vector_base<const Fact *, std::allocator<const Fact *>>::_Vector_impl_data" = type { ptr, ptr, ptr }
%class.FactMgr = type { %"class.std::map", %"class.std::map", %"class.std::map.8", %"class.std::map.8", %"class.std::map.13", %"class.std::map.13", %"class.std::map.18", %"class.std::vector.23", %"class.std::vector.0", ptr }
%"class.std::map" = type { %"class.std::_Rb_tree" }
%"class.std::_Rb_tree" = type { %"struct.std::_Rb_tree<const Statement *, std::pair<const Statement *const, std::vector<const Fact *>>, std::_Select1st<std::pair<const Statement *const, std::vector<const Fact *>>>, std::less<const Statement *>>::_Rb_tree_impl" }
%"struct.std::_Rb_tree<const Statement *, std::pair<const Statement *const, std::vector<const Fact *>>, std::_Select1st<std::pair<const Statement *const, std::vector<const Fact *>>>, std::less<const Statement *>>::_Rb_tree_impl" = type { [8 x i8], %"struct.std::_Rb_tree_header" }
%"struct.std::_Rb_tree_header" = type { %"struct.std::_Rb_tree_node_base", i64 }
%"struct.std::_Rb_tree_node_base" = type { i32, ptr, ptr, ptr }
%"class.std::map.8" = type { %"class.std::_Rb_tree.9" }
%"class.std::_Rb_tree.9" = type { %"struct.std::_Rb_tree<const Statement *, std::pair<const Statement *const, std::vector<Fact *>>, std::_Select1st<std::pair<const Statement *const, std::vector<Fact *>>>, std::less<const Statement *>>::_Rb_tree_impl" }
%"struct.std::_Rb_tree<const Statement *, std::pair<const Statement *const, std::vector<Fact *>>, std::_Select1st<std::pair<const Statement *const, std::vector<Fact *>>>, std::less<const Statement *>>::_Rb_tree_impl" = type { [8 x i8], %"struct.std::_Rb_tree_header" }
%"class.std::map.13" = type { %"class.std::_Rb_tree.14" }
%"class.std::_Rb_tree.14" = type { %"struct.std::_Rb_tree<const Statement *, std::pair<const Statement *const, Effect>, std::_Select1st<std::pair<const Statement *const, Effect>>, std::less<const Statement *>>::_Rb_tree_impl" }
%"struct.std::_Rb_tree<const Statement *, std::pair<const Statement *const, Effect>, std::_Select1st<std::pair<const Statement *const, Effect>>, std::less<const Statement *>>::_Rb_tree_impl" = type { [8 x i8], %"struct.std::_Rb_tree_header" }
%"class.std::map.18" = type { %"class.std::_Rb_tree.19" }
%"class.std::_Rb_tree.19" = type { %"struct.std::_Rb_tree<const Statement *, std::pair<const Statement *const, bool>, std::_Select1st<std::pair<const Statement *const, bool>>, std::less<const Statement *>>::_Rb_tree_impl" }
%"struct.std::_Rb_tree<const Statement *, std::pair<const Statement *const, bool>, std::_Select1st<std::pair<const Statement *const, bool>>, std::less<const Statement *>>::_Rb_tree_impl" = type { [8 x i8], %"struct.std::_Rb_tree_header" }
%"class.std::vector.23" = type { %"struct.std::_Vector_base.24" }
%"struct.std::_Vector_base.24" = type { %"struct.std::_Vector_base<const CFGEdge *, std::allocator<const CFGEdge *>>::_Vector_impl" }
%"struct.std::_Vector_base<const CFGEdge *, std::allocator<const CFGEdge *>>::_Vector_impl" = type { %"struct.std::_Vector_base<const CFGEdge *, std::allocator<const CFGEdge *>>::_Vector_impl_data" }
%"struct.std::_Vector_base<const CFGEdge *, std::allocator<const CFGEdge *>>::_Vector_impl_data" = type { ptr, ptr, ptr }

; Function Attrs: mustprogress nounwind uwtable
define linkonce_odr dso_local noundef nonnull align 8 dereferenceable(8) ptr @_ZNKSt6vectorIPK4FactSaIS2_EEixEm(ptr noundef nonnull align 8 dereferenceable(24) %0, i64 noundef %1) #4 comdat align 2 {
  %3 = alloca ptr, align 8
  %4 = alloca i64, align 8
  store ptr %0, ptr %3, align 8, !tbaa !39
  store i64 %1, ptr %4, align 8, !tbaa !19
  %5 = load ptr, ptr %3, align 8
  %6 = getelementptr inbounds nuw %"struct.std::_Vector_base.1", ptr %5, i32 0, i32 0
  %7 = getelementptr inbounds nuw %"struct.std::_Vector_base<const Fact *, std::allocator<const Fact *>>::_Vector_impl_data", ptr %6, i32 0, i32 0
  %8 = load ptr, ptr %7, align 8, !tbaa !42
  %9 = load i64, ptr %4, align 8, !tbaa !19
  %10 = getelementptr inbounds nuw ptr, ptr %8, i64 %9
  ret ptr %10
}

; Function Attrs: mustprogress nounwind uwtable
define linkonce_odr dso_local noundef i64 @_ZNKSt6vectorIPK4FactSaIS2_EE4sizeEv(ptr noundef nonnull align 8 dereferenceable(24) %0) #4 comdat align 2 {
  %2 = alloca ptr, align 8
  store ptr %0, ptr %2, align 8, !tbaa !39
  %3 = load ptr, ptr %2, align 8
  %4 = getelementptr inbounds nuw %"struct.std::_Vector_base.1", ptr %3, i32 0, i32 0
  %5 = getelementptr inbounds nuw %"struct.std::_Vector_base<const Fact *, std::allocator<const Fact *>>::_Vector_impl_data", ptr %4, i32 0, i32 1
  %6 = load ptr, ptr %5, align 8, !tbaa !41
  %7 = getelementptr inbounds nuw %"struct.std::_Vector_base.1", ptr %3, i32 0, i32 0
  %8 = getelementptr inbounds nuw %"struct.std::_Vector_base<const Fact *, std::allocator<const Fact *>>::_Vector_impl_data", ptr %7, i32 0, i32 0
  %9 = load ptr, ptr %8, align 8, !tbaa !42
  %10 = ptrtoint ptr %6 to i64
  %11 = ptrtoint ptr %9 to i64
  %12 = sub i64 %10, %11
  %13 = sdiv exact i64 %12, 8
  ret i64 %13
}

; Function Attrs: mustprogress uwtable
define dso_local void @_ZN7FactMgr20makeup_new_var_factsERSt6vectorIPK4FactSaIS3_EERKS5_(ptr noundef nonnull align 8 dereferenceable(392) %0, ptr noundef nonnull align 8 dereferenceable(24) %1, ptr noundef nonnull align 8 dereferenceable(24) %2) #5 align 2 {
  %4 = alloca ptr, align 8
  %5 = alloca ptr, align 8
  %6 = alloca ptr, align 8
  %7 = alloca i64, align 8
  %8 = alloca ptr, align 8
  %9 = alloca ptr, align 8
  store ptr %0, ptr %4, align 8, !tbaa !13
  store ptr %1, ptr %5, align 8, !tbaa !39
  store ptr %2, ptr %6, align 8, !tbaa !39
  call void @llvm.lifetime.start.p0(i64 8, ptr %7) #3
  store i64 0, ptr %7, align 8, !tbaa !19
  br label %10

10:                                               ; preds = %46, %3
  %11 = load i64, ptr %7, align 8, !tbaa !19
  %12 = load ptr, ptr %6, align 8, !tbaa !39
  %13 = call noundef i64 @_ZNKSt6vectorIPK4FactSaIS2_EE4sizeEv(ptr noundef nonnull align 8 dereferenceable(24) %12) #3
  %14 = icmp ult i64 %11, %13
  br i1 %14, label %15, label %49

15:                                               ; preds = %10
  call void @llvm.lifetime.start.p0(i64 8, ptr %8) #3
  %16 = load ptr, ptr %6, align 8, !tbaa !39
  %17 = load i64, ptr %7, align 8, !tbaa !19
  %18 = call noundef nonnull align 8 dereferenceable(8) ptr @_ZNKSt6vectorIPK4FactSaIS2_EEixEm(ptr noundef nonnull align 8 dereferenceable(24) %16, i64 noundef %17) #3
  %19 = load ptr, ptr %18, align 8, !tbaa !21
  store ptr %19, ptr %8, align 8, !tbaa !21
  call void @llvm.lifetime.start.p0(i64 8, ptr %9) #3
  %20 = load ptr, ptr %8, align 8, !tbaa !21
  %21 = load ptr, ptr %20, align 8, !tbaa !51
  %22 = getelementptr inbounds ptr, ptr %21, i64 15
  %23 = load ptr, ptr %22, align 8
  %24 = call noundef ptr %23(ptr noundef nonnull align 8 dereferenceable(12) %20)
  store ptr %24, ptr %9, align 8, !tbaa !17
  %25 = load ptr, ptr %9, align 8, !tbaa !17
  %26 = load ptr, ptr %25, align 8, !tbaa !51
  %27 = getelementptr inbounds ptr, ptr %26, i64 2
  %28 = load ptr, ptr %27, align 8
  %29 = call noundef zeroext i1 %28(ptr noundef nonnull align 8 dereferenceable(200) %25)
  br i1 %29, label %36, label %30

30:                                               ; preds = %15
  %31 = load ptr, ptr %9, align 8, !tbaa !17
  %32 = load ptr, ptr %31, align 8, !tbaa !51
  %33 = getelementptr inbounds ptr, ptr %32, i64 3
  %34 = load ptr, ptr %33, align 8
  %35 = call noundef zeroext i1 %34(ptr noundef nonnull align 8 dereferenceable(200) %31)
  br i1 %35, label %36, label %45

36:                                               ; preds = %30, %15
  %37 = load ptr, ptr %5, align 8, !tbaa !39
  %38 = load ptr, ptr %8, align 8, !tbaa !21
  %39 = call noundef ptr @_Z17find_related_factRKSt6vectorIPK4FactSaIS2_EES2_(ptr noundef nonnull align 8 dereferenceable(24) %37, ptr noundef %38)
  %40 = icmp eq ptr %39, null
  br i1 %40, label %41, label %44

41:                                               ; preds = %36
  %42 = load ptr, ptr %9, align 8, !tbaa !17
  %43 = load ptr, ptr %5, align 8, !tbaa !39
  call void @_ZN7FactMgr16add_new_var_factEPK8VariableRSt6vectorIPK4FactSaIS6_EE(ptr noundef %42, ptr noundef nonnull align 8 dereferenceable(24) %43)
  br label %44

44:                                               ; preds = %41, %36
  br label %45

45:                                               ; preds = %44, %30
  call void @llvm.lifetime.end.p0(i64 8, ptr %9) #3
  call void @llvm.lifetime.end.p0(i64 8, ptr %8) #3
  br label %46

46:                                               ; preds = %45
  %47 = load i64, ptr %7, align 8, !tbaa !19
  %48 = add i64 %47, 1
  store i64 %48, ptr %7, align 8, !tbaa !19
  br label %10, !llvm.loop !252

49:                                               ; preds = %10
  call void @llvm.lifetime.end.p0(i64 8, ptr %7) #3
  ret void
}

; Function Attrs: mustprogress uwtable
define dso_local void @_ZN7FactMgr13restore_factsERSt6vectorIPK4FactSaIS3_EE(ptr noundef nonnull align 8 dereferenceable(392) %0, ptr noundef nonnull align 8 dereferenceable(24) %1) #5 align 2 {
  %3 = alloca ptr, align 8
  %4 = alloca ptr, align 8
  store ptr %0, ptr %3, align 8, !tbaa !13
  store ptr %1, ptr %4, align 8, !tbaa !39
  %5 = load ptr, ptr %3, align 8
  %6 = load ptr, ptr %4, align 8, !tbaa !39
  %7 = getelementptr inbounds nuw %class.FactMgr, ptr %5, i32 0, i32 8
  call void @_ZN7FactMgr20makeup_new_var_factsERSt6vectorIPK4FactSaIS3_EERKS5_(ptr noundef nonnull align 8 dereferenceable(392) %5, ptr noundef nonnull align 8 dereferenceable(24) %6, ptr noundef nonnull align 8 dereferenceable(24) %7)
  %8 = load ptr, ptr %4, align 8, !tbaa !39
  %9 = getelementptr inbounds nuw %class.FactMgr, ptr %5, i32 0, i32 8
  %10 = call noundef nonnull align 8 dereferenceable(24) ptr @_ZNSt6vectorIPK4FactSaIS2_EEaSERKS4_(ptr noundef nonnull align 8 dereferenceable(24) %9, ptr noundef nonnull align 8 dereferenceable(24) %8)
  ret void
}