; Function Attrs: mustprogress uwtable
define dso_local void @_ZN7FactMgr13restore_factsERSt6vectorIPK4FactSaIS3_EE(ptr noundef nonnull align 8 dereferenceable(392) %0, ptr noundef nonnull align 8 dereferenceable(24) %1) local_unnamed_addr #4 align 2 {
  %3 = getelementptr inbounds nuw i8, ptr %0, i64 360
  %4 = getelementptr inbounds nuw i8, ptr %0, i64 368
  %5 = load ptr, ptr %4, align 8, !tbaa !14
  %6 = load ptr, ptr %3, align 8, !tbaa !16
  %.not.i = icmp eq ptr %5, %6
  br i1 %.not.i, label %_ZN7FactMgr20makeup_new_var_factsERSt6vectorIPK4FactSaIS3_EERKS5_.exit, label %.lr.ph.i

.lr.ph.i:                                         ; preds = %2, %27
  %7 = phi ptr [ %30, %27 ], [ %6, %2 ]
  %.011.i = phi i64 [ %28, %27 ], [ 0, %2 ]
  %8 = getelementptr inbounds nuw ptr, ptr %7, i64 %.011.i
  %9 = load ptr, ptr %8, align 8, !tbaa !12
  %10 = load ptr, ptr %9, align 8, !tbaa !36
  %11 = getelementptr inbounds nuw i8, ptr %10, i64 120
  %12 = load ptr, ptr %11, align 8
  %13 = tail call noundef ptr %12(ptr noundef nonnull align 8 dereferenceable(12) %9)
  %14 = load ptr, ptr %13, align 8, !tbaa !36
  %15 = getelementptr inbounds nuw i8, ptr %14, i64 16
  %16 = load ptr, ptr %15, align 8
  %17 = tail call noundef zeroext i1 %16(ptr noundef nonnull align 8 dereferenceable(200) %13)
  br i1 %17, label %23, label %18

18:                                               ; preds = %.lr.ph.i
  %19 = load ptr, ptr %13, align 8, !tbaa !36
  %20 = getelementptr inbounds nuw i8, ptr %19, i64 24
  %21 = load ptr, ptr %20, align 8
  %22 = tail call noundef zeroext i1 %21(ptr noundef nonnull align 8 dereferenceable(200) %13)
  br i1 %22, label %23, label %27

23:                                               ; preds = %18, %.lr.ph.i
  %24 = tail call noundef ptr @_Z17find_related_factRKSt6vectorIPK4FactSaIS2_EES2_(ptr noundef nonnull align 8 dereferenceable(24) %1, ptr noundef nonnull %9)
  %25 = icmp eq ptr %24, null
  br i1 %25, label %26, label %27

26:                                               ; preds = %23
  tail call void @_ZN7FactMgr16add_new_var_factEPK8VariableRSt6vectorIPK4FactSaIS6_EE(ptr noundef nonnull %13, ptr noundef nonnull align 8 dereferenceable(24) %1)
  br label %27

27:                                               ; preds = %26, %23, %18
  %28 = add nuw i64 %.011.i, 1
  %29 = load ptr, ptr %4, align 8, !tbaa !14
  %30 = load ptr, ptr %3, align 8, !tbaa !16
  %31 = ptrtoint ptr %29 to i64
  %32 = ptrtoint ptr %30 to i64
  %33 = sub i64 %31, %32
  %34 = ashr exact i64 %33, 3
  %35 = icmp ult i64 %28, %34
  br i1 %35, label %.lr.ph.i, label %_ZN7FactMgr20makeup_new_var_factsERSt6vectorIPK4FactSaIS3_EERKS5_.exit, !llvm.loop !195

_ZN7FactMgr20makeup_new_var_factsERSt6vectorIPK4FactSaIS3_EERKS5_.exit: ; preds = %27, %2
  %36 = tail call noundef nonnull align 8 dereferenceable(24) ptr @_ZNSt6vectorIPK4FactSaIS2_EEaSERKS4_(ptr noundef nonnull align 8 dereferenceable(24) %3, ptr noundef nonnull align 8 dereferenceable(24) %1)
  ret void
}